target datalayout = "e-m:e-p270:32:32-p271:32:32-p272:64:64-i64:64-i128:128-f80:128-n8:16:32:64-S128"
target triple = "x86_64-pc-linux-gnu"

%struct.AVChannelLayout = type { i32, i32, %union.anon, ptr }
%union.anon = type { i64 }
%struct.AVChannelCustom = type { i32, [16 x i8], ptr }

; Function Attrs: nounwind uwtable
define internal i32 @even(i64 noundef %0) #0 {
  %2 = alloca i32, align 4
  %3 = alloca i64, align 8
  store i64 %0, ptr %3, align 8, !tbaa !37
  %4 = load i64, ptr %3, align 8, !tbaa !37
  %5 = icmp ne i64 %4, 0
  br i1 %5, label %7, label %6

6:                                                ; preds = %1
  store i32 1, ptr %2, align 4
  br label %15

7:                                                ; preds = %1
  %8 = load i64, ptr %3, align 8, !tbaa !37
  %9 = load i64, ptr %3, align 8, !tbaa !37
  %10 = sub nsw i64 %9, 1
  %11 = and i64 %8, %10
  %12 = icmp ne i64 %11, 0
  br i1 %12, label %13, label %14

13:                                               ; preds = %7
  store i32 1, ptr %2, align 4
  br label %15

14:                                               ; preds = %7
  store i32 0, ptr %2, align 4
  br label %15

15:                                               ; preds = %14, %13, %6
  %16 = load i32, ptr %2, align 4
  ret i32 %16
}

; Function Attrs: nounwind uwtable
define internal i32 @sane_layout(ptr noundef %0) #0 {
  %2 = alloca i32, align 4
  %3 = alloca ptr, align 8
  %4 = alloca i32, align 4
  %5 = alloca i32, align 4
  store ptr %0, ptr %3, align 8, !tbaa !35
  %6 = load ptr, ptr %3, align 8, !tbaa !35
  %7 = getelementptr inbounds nuw %struct.AVChannelLayout, ptr %6, i32 0, i32 1
  %8 = load i32, ptr %7, align 4, !tbaa !40
  %9 = icmp sge i32 %8, 64
  br i1 %9, label %10, label %11

10:                                               ; preds = %1
  store i32 0, ptr %2, align 4
  br label %85

11:                                               ; preds = %1
  %12 = load ptr, ptr %3, align 8, !tbaa !35
  %13 = getelementptr inbounds nuw %struct.AVChannelLayout, ptr %12, i32 0, i32 0
  %14 = load i32, ptr %13, align 8, !tbaa !39
  %15 = icmp eq i32 %14, 2
  br i1 %15, label %16, label %42

16:                                               ; preds = %11
  call void @llvm.lifetime.start.p0(i64 4, ptr %4) #9
  store i32 0, ptr %4, align 4, !tbaa !11
  br label %17

17:                                               ; preds = %36, %16
  %18 = load i32, ptr %4, align 4, !tbaa !11
  %19 = load ptr, ptr %3, align 8, !tbaa !35
  %20 = getelementptr inbounds nuw %struct.AVChannelLayout, ptr %19, i32 0, i32 1
  %21 = load i32, ptr %20, align 4, !tbaa !40
  %22 = icmp slt i32 %18, %21
  br i1 %22, label %24, label %23

23:                                               ; preds = %17
  store i32 2, ptr %5, align 4
  br label %39

24:                                               ; preds = %17
  %25 = load ptr, ptr %3, align 8, !tbaa !35
  %26 = getelementptr inbounds nuw %struct.AVChannelLayout, ptr %25, i32 0, i32 2
  %27 = load ptr, ptr %26, align 8, !tbaa !41
  %28 = load i32, ptr %4, align 4, !tbaa !11
  %29 = sext i32 %28 to i64
  %30 = getelementptr inbounds %struct.AVChannelCustom, ptr %27, i64 %29
  %31 = getelementptr inbounds nuw %struct.AVChannelCustom, ptr %30, i32 0, i32 0
  %32 = load i32, ptr %31, align 8, !tbaa !48
  %33 = icmp sge i32 %32, 64
  br i1 %33, label %34, label %35

34:                                               ; preds = %24
  store i32 0, ptr %2, align 4
  store i32 1, ptr %5, align 4
  br label %39

35:                                               ; preds = %24
  br label %36

36:                                               ; preds = %35
  %37 = load i32, ptr %4, align 4, !tbaa !11
  %38 = add nsw i32 %37, 1
  store i32 %38, ptr %4, align 4, !tbaa !11
  br label %17, !llvm.loop !50

39:                                               ; preds = %34, %23
  call void @llvm.lifetime.end.p0(i64 4, ptr %4) #9
  %40 = load i32, ptr %5, align 4
  switch i32 %40, label %87 [
    i32 2, label %41
    i32 1, label %85
  ]

41:                                               ; preds = %39
  br label %49

42:                                               ; preds = %11
  %43 = load ptr, ptr %3, align 8, !tbaa !35
  %44 = getelementptr inbounds nuw %struct.AVChannelLayout, ptr %43, i32 0, i32 0
  %45 = load i32, ptr %44, align 8, !tbaa !39
  %46 = icmp ne i32 %45, 1
  br i1 %46, label %47, label %48

47:                                               ; preds = %42
  store i32 0, ptr %2, align 4
  br label %85

48:                                               ; preds = %42
  br label %49

49:                                               ; preds = %48, %41
  %50 = load ptr, ptr %3, align 8, !tbaa !35
  %51 = call i64 @av_channel_layout_subset(ptr noundef %50, i64 noundef 7)
  %52 = icmp ne i64 %51, 0
  br i1 %52, label %54, label %53

53:                                               ; preds = %49
  store i32 0, ptr %2, align 4
  br label %85

54:                                               ; preds = %49
  %55 = load ptr, ptr %3, align 8, !tbaa !35
  %56 = call i64 @av_channel_layout_subset(ptr noundef %55, i64 noundef 3)
  %57 = call i32 @even(i64 noundef %56)
  %58 = icmp ne i32 %57, 0
  br i1 %58, label %60, label %59

59:                                               ; preds = %54
  store i32 0, ptr %2, align 4
  br label %85

60:                                               ; preds = %54
  %61 = load ptr, ptr %3, align 8, !tbaa !35
  %62 = call i64 @av_channel_layout_subset(ptr noundef %61, i64 noundef 1536)
  %63 = call i32 @even(i64 noundef %62)
  %64 = icmp ne i32 %63, 0
  br i1 %64, label %66, label %65

65:                                               ; preds = %60
  store i32 0, ptr %2, align 4
  br label %85

66:                                               ; preds = %60
  %67 = load ptr, ptr %3, align 8, !tbaa !35
  %68 = call i64 @av_channel_layout_subset(ptr noundef %67, i64 noundef 48)
  %69 = call i32 @even(i64 noundef %68)
  %70 = icmp ne i32 %69, 0
  br i1 %70, label %72, label %71

71:                                               ; preds = %66
  store i32 0, ptr %2, align 4
  br label %85

72:                                               ; preds = %66
  %73 = load ptr, ptr %3, align 8, !tbaa !35
  %74 = call i64 @av_channel_layout_subset(ptr noundef %73, i64 noundef 192)
  %75 = call i32 @even(i64 noundef %74)
  %76 = icmp ne i32 %75, 0
  br i1 %76, label %78, label %77

77:                                               ; preds = %72
  store i32 0, ptr %2, align 4
  br label %85

78:                                               ; preds = %72
  %79 = load ptr, ptr %3, align 8, !tbaa !35
  %80 = call i64 @av_channel_layout_subset(ptr noundef %79, i64 noundef 20480)
  %81 = call i32 @even(i64 noundef %80)
  %82 = icmp ne i32 %81, 0
  br i1 %82, label %84, label %83

83:                                               ; preds = %78
  store i32 0, ptr %2, align 4
  br label %85

84:                                               ; preds = %78
  store i32 1, ptr %2, align 4
  br label %85

85:                                               ; preds = %84, %83, %77, %71, %65, %59, %53, %47, %39, %10
  %86 = load i32, ptr %2, align 4
  ret i32 %86

87:                                               ; preds = %39
  unreachable
}