; Function Attrs: nounwind uwtable
define internal fastcc range(i32 0, 2) i32 @sane_layout(ptr noundef nonnull %0) unnamed_addr #4 {
  %2 = getelementptr inbounds nuw i8, ptr %0, i64 4
  %3 = load i32, ptr %2, align 4, !tbaa !31
  %4 = icmp sgt i32 %3, 63
  br i1 %4, label %even.exit43.thread, label %5

5:                                                ; preds = %1
  %6 = load i32, ptr %0, align 8, !tbaa !30
  switch i32 %6, label %even.exit43.thread [
    i32 2, label %.preheader
    i32 1, label %.thread
  ]

.preheader:                                       ; preds = %5
  %7 = icmp sgt i32 %3, 0
  br i1 %7, label %.lr.ph, label %.thread

.lr.ph:                                           ; preds = %.preheader
  %8 = getelementptr inbounds nuw i8, ptr %0, i64 8
  %9 = load ptr, ptr %8, align 8, !tbaa !32
  %wide.trip.count = zext nneg i32 %3 to i64
  br label %11

10:                                               ; preds = %11
  %indvars.iv.next = add nuw nsw i64 %indvars.iv, 1
  %exitcond.not = icmp eq i64 %indvars.iv.next, %wide.trip.count
  br i1 %exitcond.not, label %.thread, label %11, !llvm.loop !45

11:                                               ; preds = %.lr.ph, %10
  %indvars.iv = phi i64 [ 0, %.lr.ph ], [ %indvars.iv.next, %10 ]
  %12 = getelementptr inbounds nuw %struct.AVChannelCustom, ptr %9, i64 %indvars.iv
  %13 = load i32, ptr %12, align 8, !tbaa !46
  %14 = icmp sgt i32 %13, 63
  br i1 %14, label %even.exit43.thread, label %10

.thread:                                          ; preds = %10, %.preheader, %5
  %15 = tail call i64 @av_channel_layout_subset(ptr noundef nonnull %0, i64 noundef 7) #11
  %.not18 = icmp eq i64 %15, 0
  br i1 %.not18, label %even.exit43.thread, label %16

16:                                               ; preds = %.thread
  %17 = tail call i64 @av_channel_layout_subset(ptr noundef nonnull %0, i64 noundef 3) #11
  %18 = tail call range(i64 0, 65) i64 @llvm.ctpop.i64(i64 %17)
  %or.cond = icmp eq i64 %18, 1
  br i1 %or.cond, label %even.exit43.thread, label %even.exit.thread

even.exit.thread:                                 ; preds = %16
  %19 = tail call i64 @av_channel_layout_subset(ptr noundef nonnull %0, i64 noundef 1536) #11
  %20 = tail call range(i64 0, 65) i64 @llvm.ctpop.i64(i64 %19)
  %or.cond59 = icmp eq i64 %20, 1
  br i1 %or.cond59, label %even.exit43.thread, label %even.exit28.thread

even.exit28.thread:                               ; preds = %even.exit.thread
  %21 = tail call i64 @av_channel_layout_subset(ptr noundef nonnull %0, i64 noundef 48) #11
  %22 = tail call range(i64 0, 65) i64 @llvm.ctpop.i64(i64 %21)
  %or.cond60 = icmp eq i64 %22, 1
  br i1 %or.cond60, label %even.exit43.thread, label %even.exit33.thread

even.exit33.thread:                               ; preds = %even.exit28.thread
  %23 = tail call i64 @av_channel_layout_subset(ptr noundef nonnull %0, i64 noundef 192) #11
  %24 = tail call range(i64 0, 65) i64 @llvm.ctpop.i64(i64 %23)
  %or.cond61 = icmp eq i64 %24, 1
  br i1 %or.cond61, label %even.exit43.thread, label %even.exit38.thread

even.exit38.thread:                               ; preds = %even.exit33.thread
  %25 = tail call i64 @av_channel_layout_subset(ptr noundef nonnull %0, i64 noundef 20480) #11
  %.fr58 = freeze i64 %25
  %.not.i39 = icmp eq i64 %.fr58, 0
  br i1 %.not.i39, label %even.exit43.thread, label %even.exit43

even.exit43:                                      ; preds = %even.exit38.thread
  %26 = tail call range(i64 1, 65) i64 @llvm.ctpop.i64(i64 %.fr58)
  %.not5.i40 = icmp samesign ugt i64 %26, 1
  %spec.select = zext i1 %.not5.i40 to i32
  br label %even.exit43.thread

even.exit43.thread:                               ; preds = %11, %even.exit33.thread, %even.exit28.thread, %even.exit.thread, %16, %even.exit43, %even.exit38.thread, %.thread, %5, %1
  %.016 = phi i32 [ 0, %1 ], [ 0, %5 ], [ 0, %.thread ], [ 1, %even.exit38.thread ], [ %spec.select, %even.exit43 ], [ 0, %16 ], [ 0, %even.exit.thread ], [ 0, %even.exit28.thread ], [ 0, %even.exit33.thread ], [ 0, %11 ]
  ret i32 %.016
}